target datalayout = "e-m:e-p270:32:32-p271:32:32-p272:64:64-i64:64-i128:128-f80:128-n8:16:32:64-S128"
target triple = "x86_64-pc-linux-gnu"

%struct.Type_ = type { i32, ptr, ptr, ptr, %union.anon.85, ptr, ptr, %union.anon.87 }
%union.anon.85 = type { ptr }
%union.anon.87 = type { %struct.TypeFunction }
%struct.TypeFunction = type { ptr, ptr, ptr }
%struct.Regs = type { i32, i32 }

; Function Attrs: nounwind uwtable
define dso_local ptr @win64_reclassify_hva_arg(ptr noundef %0, ptr noundef %1, ptr noundef %2) #0 {
  %4 = alloca i32, align 4
  %5 = alloca ptr, align 8
  %6 = alloca ptr, align 8
  %7 = alloca ptr, align 8
  %8 = alloca ptr, align 8
  %9 = alloca ptr, align 8
  %10 = alloca i32, align 4
  %11 = alloca ptr, align 8
  store ptr %0, ptr %6, align 8
  store ptr %1, ptr %7, align 8
  store ptr %2, ptr %8, align 8
  store ptr null, ptr %9, align 8
  store i32 0, ptr %10, align 4
  %12 = load ptr, ptr %7, align 8
  %13 = call ptr @type_lowering(ptr noundef %12)
  store ptr %13, ptr %7, align 8
  %14 = load ptr, ptr %7, align 8
  %15 = getelementptr inbounds %struct.Type_, ptr %14, i32 0, i32 0
  %16 = load i32, ptr %15, align 8
  store i32 %16, ptr %4, align 4
  %17 = load i32, ptr %4, align 4
  %18 = icmp uge i32 %17, 1
  br i1 %18, label %19, label %22

19:                                               ; preds = %3
  %20 = load i32, ptr %4, align 4
  %21 = icmp ule i32 %20, 22
  br label %22

22:                                               ; preds = %19, %3
  %23 = phi i1 [ false, %3 ], [ %21, %19 ]
  br i1 %23, label %47, label %24

24:                                               ; preds = %22
  %25 = load ptr, ptr %7, align 8
  %26 = getelementptr inbounds %struct.Type_, ptr %25, i32 0, i32 0
  %27 = load i32, ptr %26, align 8
  %28 = icmp ne i32 %27, 37
  br i1 %28, label %29, label %47

29:                                               ; preds = %24
  %30 = load ptr, ptr %7, align 8
  %31 = call zeroext i1 @type_is_homogenous_aggregate(ptr noundef %30, ptr noundef %9, ptr noundef %10)
  br i1 %31, label %32, label %47

32:                                               ; preds = %29
  %33 = load ptr, ptr %6, align 8
  %34 = getelementptr inbounds %struct.Regs, ptr %33, i32 0, i32 1
  %35 = load i32, ptr %34, align 4
  %36 = load i32, ptr %10, align 4
  %37 = icmp uge i32 %35, %36
  br i1 %37, label %38, label %46

38:                                               ; preds = %32
  %39 = load i32, ptr %10, align 4
  %40 = load ptr, ptr %6, align 8
  %41 = getelementptr inbounds %struct.Regs, ptr %40, i32 0, i32 1
  %42 = load i32, ptr %41, align 4
  %43 = sub i32 %42, %39
  store i32 %43, ptr %41, align 4
  %44 = call ptr @abi_arg_new_direct_by_reg(i1 noundef zeroext true)
  store ptr %44, ptr %11, align 8
  %45 = load ptr, ptr %11, align 8
  store ptr %45, ptr %5, align 8
  br label %49

46:                                               ; preds = %32
  br label %47

47:                                               ; preds = %46, %29, %24, %22
  %48 = load ptr, ptr %8, align 8
  store ptr %48, ptr %5, align 8
  br label %49

49:                                               ; preds = %47, %38
  %50 = load ptr, ptr %5, align 8
  ret ptr %50
}