; Function Attrs: nounwind uwtable
define dso_local ptr @win64_reclassify_hva_arg(ptr nocapture noundef %0, ptr nocapture noundef readonly %1, ptr noundef readnone %2) local_unnamed_addr #0 {
  %4 = alloca ptr, align 8
  %5 = alloca i32, align 4
  store ptr null, ptr %4, align 8
  store i32 0, ptr %5, align 4
  %6 = tail call fastcc ptr @type_lowering(ptr noundef %1)
  %7 = load i32, ptr %6, align 8
  %8 = add i32 %7, -1
  %9 = icmp ult i32 %8, 22
  %.not = icmp eq i32 %7, 37
  %or.cond = or i1 %.not, %9
  br i1 %or.cond, label %19, label %10

10:                                               ; preds = %3
  %11 = call zeroext i1 @type_is_homogenous_aggregate(ptr noundef nonnull %6, ptr noundef nonnull %4, ptr noundef nonnull %5) #5
  br i1 %11, label %12, label %19

12:                                               ; preds = %10
  %13 = getelementptr inbounds i8, ptr %0, i64 4
  %14 = load i32, ptr %13, align 4
  %15 = load i32, ptr %5, align 4
  %.not12 = icmp ult i32 %14, %15
  br i1 %.not12, label %19, label %16

16:                                               ; preds = %12
  %17 = sub i32 %14, %15
  store i32 %17, ptr %13, align 4
  %18 = call ptr @abi_arg_new_direct_by_reg(i1 noundef zeroext true) #5
  br label %19

19:                                               ; preds = %3, %10, %12, %16
  %.0 = phi ptr [ %18, %16 ], [ %2, %12 ], [ %2, %10 ], [ %2, %3 ]
  ret ptr %.0
}